target datalayout = "e-m:e-p270:32:32-p271:32:32-p272:64:64-i64:64-i128:128-f80:128-n8:16:32:64-S128"
target triple = "x86_64-pc-linux-gnu"

%"class.std::_Function_base" = type { %"union.std::_Any_data", ptr }
%"union.std::_Any_data" = type { %"union.std::_Nocopy_types" }
%"union.std::_Nocopy_types" = type { { i64, i64 } }
%"class.std::unique_ptr.103" = type { %"struct.std::__uniq_ptr_data.104" }
%"struct.std::__uniq_ptr_data.104" = type { %"class.std::__uniq_ptr_impl.105" }
%"class.std::__uniq_ptr_impl.105" = type { %"class.std::tuple.106" }
%"class.std::tuple.106" = type { %"struct.std::_Tuple_impl.107" }
%"struct.std::_Tuple_impl.107" = type { %"struct.std::_Head_base.110" }
%"struct.std::_Head_base.110" = type { ptr }
%"class.gmx::ModularSimulatorAlgorithm" = type { %"class.std::vector", %"class.__gnu_cxx::__normal_iterator", %"class.std::vector.5", %"class.std::vector.10", %"class.std::vector.15", %"class.std::vector.15", %"class.std::vector.20", %"class.std::vector.20", %"class.std::unique_ptr", %"class.std::unique_ptr.27", %"class.std::unique_ptr.35", %"class.std::unique_ptr.43", %"class.std::unique_ptr.51", %"class.std::unique_ptr.59", %"class.std::unique_ptr.67", %"class.std::unique_ptr.75", %"class.std::unique_ptr.83", %"class.std::unique_ptr.91", %"class.std::map", i64, i8, %"class.std::unique_ptr.103", i8, i64, %"class.std::__cxx11::basic_string", ptr, ptr, ptr, ptr, ptr, ptr, ptr, ptr, ptr }
%"class.std::vector" = type { %"struct.std::_Vector_base" }
%"struct.std::_Vector_base" = type { %"struct.std::_Vector_base<std::function<void ()>, std::allocator<std::function<void ()>>>::_Vector_impl" }
%"struct.std::_Vector_base<std::function<void ()>, std::allocator<std::function<void ()>>>::_Vector_impl" = type { %"struct.std::_Vector_base<std::function<void ()>, std::allocator<std::function<void ()>>>::_Vector_impl_data" }
%"struct.std::_Vector_base<std::function<void ()>, std::allocator<std::function<void ()>>>::_Vector_impl_data" = type { ptr, ptr, ptr }
%"class.__gnu_cxx::__normal_iterator" = type { ptr }
%"class.std::vector.5" = type { %"struct.std::_Vector_base.6" }
%"struct.std::_Vector_base.6" = type { %"struct.std::_Vector_base<std::unique_ptr<gmx::ISignaller>, std::allocator<std::unique_ptr<gmx::ISignaller>>>::_Vector_impl" }
%"struct.std::_Vector_base<std::unique_ptr<gmx::ISignaller>, std::allocator<std::unique_ptr<gmx::ISignaller>>>::_Vector_impl" = type { %"struct.std::_Vector_base<std::unique_ptr<gmx::ISignaller>, std::allocator<std::unique_ptr<gmx::ISignaller>>>::_Vector_impl_data" }
%"struct.std::_Vector_base<std::unique_ptr<gmx::ISignaller>, std::allocator<std::unique_ptr<gmx::ISignaller>>>::_Vector_impl_data" = type { ptr, ptr, ptr }
%"class.std::vector.10" = type { %"struct.std::_Vector_base.11" }
%"struct.std::_Vector_base.11" = type { %"struct.std::_Vector_base<std::unique_ptr<gmx::ISimulatorElement>, std::allocator<std::unique_ptr<gmx::ISimulatorElement>>>::_Vector_impl" }
%"struct.std::_Vector_base<std::unique_ptr<gmx::ISimulatorElement>, std::allocator<std::unique_ptr<gmx::ISimulatorElement>>>::_Vector_impl" = type { %"struct.std::_Vector_base<std::unique_ptr<gmx::ISimulatorElement>, std::allocator<std::unique_ptr<gmx::ISimulatorElement>>>::_Vector_impl_data" }
%"struct.std::_Vector_base<std::unique_ptr<gmx::ISimulatorElement>, std::allocator<std::unique_ptr<gmx::ISimulatorElement>>>::_Vector_impl_data" = type { ptr, ptr, ptr }
%"class.std::vector.15" = type { %"struct.std::_Vector_base.16" }
%"struct.std::_Vector_base.16" = type { %"struct.std::_Vector_base<gmx::ISimulatorElement *, std::allocator<gmx::ISimulatorElement *>>::_Vector_impl" }
%"struct.std::_Vector_base<gmx::ISimulatorElement *, std::allocator<gmx::ISimulatorElement *>>::_Vector_impl" = type { %"struct.std::_Vector_base<gmx::ISimulatorElement *, std::allocator<gmx::ISimulatorElement *>>::_Vector_impl_data" }
%"struct.std::_Vector_base<gmx::ISimulatorElement *, std::allocator<gmx::ISimulatorElement *>>::_Vector_impl_data" = type { ptr, ptr, ptr }
%"class.std::vector.20" = type { %"struct.std::_Vector_base.21" }
%"struct.std::_Vector_base.21" = type { %"struct.std::_Vector_base<std::function<void (long, double, const std::function<void (std::function<void ()>)> &)>, std::allocator<std::function<void (long, double, const std::function<void (std::function<void ()>)> &)>>>::_Vector_impl" }
%"struct.std::_Vector_base<std::function<void (long, double, const std::function<void (std::function<void ()>)> &)>, std::allocator<std::function<void (long, double, const std::function<void (std::function<void ()>)> &)>>>::_Vector_impl" = type { %"struct.std::_Vector_base<std::function<void (long, double, const std::function<void (std::function<void ()>)> &)>, std::allocator<std::function<void (long, double, const std::function<void (std::function<void ()>)> &)>>>::_Vector_impl_data" }
%"struct.std::_Vector_base<std::function<void (long, double, const std::function<void (std::function<void ()>)> &)>, std::allocator<std::function<void (long, double, const std::function<void (std::function<void ()>)> &)>>>::_Vector_impl_data" = type { ptr, ptr, ptr }
%"class.std::unique_ptr" = type { %"struct.std::__uniq_ptr_data" }
%"struct.std::__uniq_ptr_data" = type { %"class.std::__uniq_ptr_impl" }
%"class.std::__uniq_ptr_impl" = type { %"class.std::tuple" }
%"class.std::tuple" = type { %"struct.std::_Tuple_impl" }
%"struct.std::_Tuple_impl" = type { %"struct.std::_Head_base.26" }
%"struct.std::_Head_base.26" = type { ptr }
%"class.std::unique_ptr.27" = type { %"struct.std::__uniq_ptr_data.28" }
%"struct.std::__uniq_ptr_data.28" = type { %"class.std::__uniq_ptr_impl.29" }
%"class.std::__uniq_ptr_impl.29" = type { %"class.std::tuple.30" }
%"class.std::tuple.30" = type { %"struct.std::_Tuple_impl.31" }
%"struct.std::_Tuple_impl.31" = type { %"struct.std::_Head_base.34" }
%"struct.std::_Head_base.34" = type { ptr }
%"class.std::unique_ptr.35" = type { %"struct.std::__uniq_ptr_data.36" }
%"struct.std::__uniq_ptr_data.36" = type { %"class.std::__uniq_ptr_impl.37" }
%"class.std::__uniq_ptr_impl.37" = type { %"class.std::tuple.38" }
%"class.std::tuple.38" = type { %"struct.std::_Tuple_impl.39" }
%"struct.std::_Tuple_impl.39" = type { %"struct.std::_Head_base.42" }
%"struct.std::_Head_base.42" = type { ptr }
%"class.std::unique_ptr.43" = type { %"struct.std::__uniq_ptr_data.44" }
%"struct.std::__uniq_ptr_data.44" = type { %"class.std::__uniq_ptr_impl.45" }
%"class.std::__uniq_ptr_impl.45" = type { %"class.std::tuple.46" }
%"class.std::tuple.46" = type { %"struct.std::_Tuple_impl.47" }
%"struct.std::_Tuple_impl.47" = type { %"struct.std::_Head_base.50" }
%"struct.std::_Head_base.50" = type { ptr }
%"class.std::unique_ptr.51" = type { %"struct.std::__uniq_ptr_data.52" }
%"struct.std::__uniq_ptr_data.52" = type { %"class.std::__uniq_ptr_impl.53" }
%"class.std::__uniq_ptr_impl.53" = type { %"class.std::tuple.54" }
%"class.std::tuple.54" = type { %"struct.std::_Tuple_impl.55" }
%"struct.std::_Tuple_impl.55" = type { %"struct.std::_Head_base.58" }
%"struct.std::_Head_base.58" = type { ptr }
%"class.std::unique_ptr.59" = type { %"struct.std::__uniq_ptr_data.60" }
%"struct.std::__uniq_ptr_data.60" = type { %"class.std::__uniq_ptr_impl.61" }
%"class.std::__uniq_ptr_impl.61" = type { %"class.std::tuple.62" }
%"class.std::tuple.62" = type { %"struct.std::_Tuple_impl.63" }
%"struct.std::_Tuple_impl.63" = type { %"struct.std::_Head_base.66" }
%"struct.std::_Head_base.66" = type { ptr }
%"class.std::unique_ptr.67" = type { %"struct.std::__uniq_ptr_data.68" }
%"struct.std::__uniq_ptr_data.68" = type { %"class.std::__uniq_ptr_impl.69" }
%"class.std::__uniq_ptr_impl.69" = type { %"class.std::tuple.70" }
%"class.std::tuple.70" = type { %"struct.std::_Tuple_impl.71" }
%"struct.std::_Tuple_impl.71" = type { %"struct.std::_Head_base.74" }
%"struct.std::_Head_base.74" = type { ptr }
%"class.std::unique_ptr.75" = type { %"struct.std::__uniq_ptr_data.76" }
%"struct.std::__uniq_ptr_data.76" = type { %"class.std::__uniq_ptr_impl.77" }
%"class.std::__uniq_ptr_impl.77" = type { %"class.std::tuple.78" }
%"class.std::tuple.78" = type { %"struct.std::_Tuple_impl.79" }
%"struct.std::_Tuple_impl.79" = type { %"struct.std::_Head_base.82" }
%"struct.std::_Head_base.82" = type { ptr }
%"class.std::unique_ptr.83" = type { %"struct.std::__uniq_ptr_data.84" }
%"struct.std::__uniq_ptr_data.84" = type { %"class.std::__uniq_ptr_impl.85" }
%"class.std::__uniq_ptr_impl.85" = type { %"class.std::tuple.86" }
%"class.std::tuple.86" = type { %"struct.std::_Tuple_impl.87" }
%"struct.std::_Tuple_impl.87" = type { %"struct.std::_Head_base.90" }
%"struct.std::_Head_base.90" = type { ptr }
%"class.std::unique_ptr.91" = type { %"struct.std::__uniq_ptr_data.92" }
%"struct.std::__uniq_ptr_data.92" = type { %"class.std::__uniq_ptr_impl.93" }
%"class.std::__uniq_ptr_impl.93" = type { %"class.std::tuple.94" }
%"class.std::tuple.94" = type { %"struct.std::_Tuple_impl.95" }
%"struct.std::_Tuple_impl.95" = type { %"struct.std::_Head_base.98" }
%"struct.std::_Head_base.98" = type { ptr }
%"class.std::map" = type { %"class.std::_Rb_tree" }
%"class.std::_Rb_tree" = type { %"struct.std::_Rb_tree<std::__cxx11::basic_string<char>, std::pair<const std::__cxx11::basic_string<char>, std::unique_ptr<std::any>>, std::_Select1st<std::pair<const std::__cxx11::basic_string<char>, std::unique_ptr<std::any>>>, std::less<std::__cxx11::basic_string<char>>>::_Rb_tree_impl" }
%"struct.std::_Rb_tree<std::__cxx11::basic_string<char>, std::pair<const std::__cxx11::basic_string<char>, std::unique_ptr<std::any>>, std::_Select1st<std::pair<const std::__cxx11::basic_string<char>, std::unique_ptr<std::any>>>, std::less<std::__cxx11::basic_string<char>>>::_Rb_tree_impl" = type { %"struct.std::_Rb_tree_key_compare", %"struct.std::_Rb_tree_header" }
%"struct.std::_Rb_tree_key_compare" = type { %"struct.std::less" }
%"struct.std::less" = type { i8 }
%"struct.std::_Rb_tree_header" = type { %"struct.std::_Rb_tree_node_base", i64 }
%"struct.std::_Rb_tree_node_base" = type { i32, ptr, ptr, ptr }
%"class.std::__cxx11::basic_string" = type { %"struct.std::__cxx11::basic_string<char>::_Alloc_hider", i64, %union.anon }
%"struct.std::__cxx11::basic_string<char>::_Alloc_hider" = type { ptr }
%union.anon = type { i64, [8 x i8] }
%"class.std::function.295" = type { %"class.std::_Function_base", ptr }

; Function Attrs: mustprogress nounwind uwtable
define linkonce_odr void @_ZNSt14_Function_baseD2Ev(ptr noundef nonnull align 8 dereferenceable(24) %0) unnamed_addr #0 comdat align 2 personality ptr @__gxx_personality_v0 {
  %2 = alloca ptr, align 8
  store ptr %0, ptr %2, align 8
  %3 = load ptr, ptr %2, align 8
  %4 = getelementptr inbounds %"class.std::_Function_base", ptr %3, i32 0, i32 1
  %5 = load ptr, ptr %4, align 8
  %6 = icmp ne ptr %5, null
  br i1 %6, label %7, label %14

7:                                                ; preds = %1
  %8 = getelementptr inbounds %"class.std::_Function_base", ptr %3, i32 0, i32 1
  %9 = load ptr, ptr %8, align 8
  %10 = getelementptr inbounds %"class.std::_Function_base", ptr %3, i32 0, i32 0
  %11 = getelementptr inbounds %"class.std::_Function_base", ptr %3, i32 0, i32 0
  %12 = invoke noundef zeroext i1 %9(ptr noundef nonnull align 8 dereferenceable(16) %10, ptr noundef nonnull align 8 dereferenceable(16) %11, i32 noundef 3)
          to label %13 unwind label %15

13:                                               ; preds = %7
  br label %14

14:                                               ; preds = %13, %1
  ret void

15:                                               ; preds = %7
  %16 = landingpad { ptr, i32 }
          catch ptr null
  %17 = extractvalue { ptr, i32 } %16, 0
  call void @__clang_call_terminate(ptr %17) #20
  unreachable
}

; Function Attrs: mustprogress nounwind uwtable
define linkonce_odr void @_ZNSt8functionIFvvEED2Ev(ptr noundef nonnull align 8 dereferenceable(32) %0) unnamed_addr #0 comdat align 2 {
  %2 = alloca ptr, align 8
  store ptr %0, ptr %2, align 8
  %3 = load ptr, ptr %2, align 8
  call void @_ZNSt14_Function_baseD2Ev(ptr noundef nonnull align 8 dereferenceable(24) %3) #17
  ret void
}

; Function Attrs: mustprogress nounwind uwtable
define linkonce_odr void @_ZSt8_DestroyISt8functionIFvvEEEvPT_(ptr noundef %0) #0 comdat {
  %2 = alloca ptr, align 8
  store ptr %0, ptr %2, align 8
  %3 = load ptr, ptr %2, align 8
  call void @_ZNSt8functionIFvvEED2Ev(ptr noundef nonnull align 8 dereferenceable(32) %3) #17
  ret void
}

; Function Attrs: mustprogress uwtable
define linkonce_odr void @_ZNSt12_Destroy_auxILb0EE9__destroyIPSt8functionIFvvEEEEvT_S6_(ptr noundef %0, ptr noundef %1) #3 comdat align 2 {
  %3 = alloca ptr, align 8
  %4 = alloca ptr, align 8
  store ptr %0, ptr %3, align 8
  store ptr %1, ptr %4, align 8
  br label %5

5:                                                ; preds = %11, %2
  %6 = load ptr, ptr %3, align 8
  %7 = load ptr, ptr %4, align 8
  %8 = icmp ne ptr %6, %7
  br i1 %8, label %9, label %14

9:                                                ; preds = %5
  %10 = load ptr, ptr %3, align 8
  call void @_ZSt8_DestroyISt8functionIFvvEEEvPT_(ptr noundef %10)
  br label %11

11:                                               ; preds = %9
  %12 = load ptr, ptr %3, align 8
  %13 = getelementptr inbounds %"class.std::function.295", ptr %12, i32 1
  store ptr %13, ptr %3, align 8
  br label %5, !llvm.loop !13

14:                                               ; preds = %5
  ret void
}

; Function Attrs: mustprogress uwtable
define linkonce_odr void @_ZSt8_DestroyIPSt8functionIFvvEEEvT_S4_(ptr noundef %0, ptr noundef %1) #3 comdat {
  %3 = alloca ptr, align 8
  %4 = alloca ptr, align 8
  store ptr %0, ptr %3, align 8
  store ptr %1, ptr %4, align 8
  %5 = load ptr, ptr %3, align 8
  %6 = load ptr, ptr %4, align 8
  call void @_ZNSt12_Destroy_auxILb0EE9__destroyIPSt8functionIFvvEEEEvT_S6_(ptr noundef %5, ptr noundef %6)
  ret void
}

; Function Attrs: mustprogress uwtable
define linkonce_odr void @_ZSt8_DestroyIPSt8functionIFvvEES2_EvT_S4_RSaIT0_E(ptr noundef %0, ptr noundef %1, ptr noundef nonnull align 1 dereferenceable(1) %2) #3 comdat {
  %4 = alloca ptr, align 8
  %5 = alloca ptr, align 8
  %6 = alloca ptr, align 8
  store ptr %0, ptr %4, align 8
  store ptr %1, ptr %5, align 8
  store ptr %2, ptr %6, align 8
  %7 = load ptr, ptr %4, align 8
  %8 = load ptr, ptr %5, align 8
  call void @_ZSt8_DestroyIPSt8functionIFvvEEEvT_S4_(ptr noundef %7, ptr noundef %8)
  ret void
}

; Function Attrs: mustprogress nounwind uwtable
define linkonce_odr noundef nonnull align 1 dereferenceable(1) ptr @_ZNSt12_Vector_baseISt8functionIFvvEESaIS2_EE19_M_get_Tp_allocatorEv(ptr noundef nonnull align 8 dereferenceable(24) %0) #0 comdat align 2 {
  %2 = alloca ptr, align 8
  store ptr %0, ptr %2, align 8
  %3 = load ptr, ptr %2, align 8
  %4 = getelementptr inbounds %"struct.std::_Vector_base", ptr %3, i32 0, i32 0
  ret ptr %4
}

; Function Attrs: mustprogress nounwind uwtable
define linkonce_odr void @_ZNSt6vectorISt8functionIFvvEESaIS2_EE15_M_erase_at_endEPS2_(ptr noundef nonnull align 8 dereferenceable(24) %0, ptr noundef %1) #0 comdat align 2 personality ptr @__gxx_personality_v0 {
  %3 = alloca ptr, align 8
  %4 = alloca ptr, align 8
  %5 = alloca i64, align 8
  store ptr %0, ptr %3, align 8
  store ptr %1, ptr %4, align 8
  %6 = load ptr, ptr %3, align 8
  %7 = getelementptr inbounds %"struct.std::_Vector_base", ptr %6, i32 0, i32 0
  %8 = getelementptr inbounds %"struct.std::_Vector_base<std::function<void ()>, std::allocator<std::function<void ()>>>::_Vector_impl_data", ptr %7, i32 0, i32 1
  %9 = load ptr, ptr %8, align 8
  %10 = load ptr, ptr %4, align 8
  %11 = ptrtoint ptr %9 to i64
  %12 = ptrtoint ptr %10 to i64
  %13 = sub i64 %11, %12
  %14 = sdiv exact i64 %13, 32
  store i64 %14, ptr %5, align 8
  %15 = load i64, ptr %5, align 8
  %16 = icmp ne i64 %15, 0
  br i1 %16, label %17, label %27

17:                                               ; preds = %2
  %18 = load ptr, ptr %4, align 8
  %19 = getelementptr inbounds %"struct.std::_Vector_base", ptr %6, i32 0, i32 0
  %20 = getelementptr inbounds %"struct.std::_Vector_base<std::function<void ()>, std::allocator<std::function<void ()>>>::_Vector_impl_data", ptr %19, i32 0, i32 1
  %21 = load ptr, ptr %20, align 8
  %22 = call noundef nonnull align 1 dereferenceable(1) ptr @_ZNSt12_Vector_baseISt8functionIFvvEESaIS2_EE19_M_get_Tp_allocatorEv(ptr noundef nonnull align 8 dereferenceable(24) %6) #17
  invoke void @_ZSt8_DestroyIPSt8functionIFvvEES2_EvT_S4_RSaIT0_E(ptr noundef %18, ptr noundef %21, ptr noundef nonnull align 1 dereferenceable(1) %22)
          to label %23 unwind label %28

23:                                               ; preds = %17
  %24 = load ptr, ptr %4, align 8
  %25 = getelementptr inbounds %"struct.std::_Vector_base", ptr %6, i32 0, i32 0
  %26 = getelementptr inbounds %"struct.std::_Vector_base<std::function<void ()>, std::allocator<std::function<void ()>>>::_Vector_impl_data", ptr %25, i32 0, i32 1
  store ptr %24, ptr %26, align 8
  br label %27

27:                                               ; preds = %23, %2
  ret void

28:                                               ; preds = %17
  %29 = landingpad { ptr, i32 }
          catch ptr null
  %30 = extractvalue { ptr, i32 } %29, 0
  call void @__clang_call_terminate(ptr %30) #20
  unreachable
}

; Function Attrs: mustprogress nounwind uwtable
define linkonce_odr void @_ZNSt6vectorISt8functionIFvvEESaIS2_EE5clearEv(ptr noundef nonnull align 8 dereferenceable(24) %0) #0 comdat align 2 {
  %2 = alloca ptr, align 8
  store ptr %0, ptr %2, align 8
  %3 = load ptr, ptr %2, align 8
  %4 = getelementptr inbounds %"struct.std::_Vector_base", ptr %3, i32 0, i32 0
  %5 = getelementptr inbounds %"struct.std::_Vector_base<std::function<void ()>, std::allocator<std::function<void ()>>>::_Vector_impl_data", ptr %4, i32 0, i32 0
  %6 = load ptr, ptr %5, align 8
  call void @_ZNSt6vectorISt8functionIFvvEESaIS2_EE15_M_erase_at_endEPS2_(ptr noundef nonnull align 8 dereferenceable(24) %3, ptr noundef %6) #17
  ret void
}

; Function Attrs: mustprogress uwtable
define void @_ZN3gmx25ModularSimulatorAlgorithm15updateTaskQueueEv(ptr noundef nonnull align 8 dereferenceable(448) %0) #3 align 2 {
  %2 = alloca ptr, align 8
  store ptr %0, ptr %2, align 8
  %3 = load ptr, ptr %2, align 8
  %4 = getelementptr inbounds %"class.gmx::ModularSimulatorAlgorithm", ptr %3, i32 0, i32 0
  call void @_ZNSt6vectorISt8functionIFvvEESaIS2_EE5clearEv(ptr noundef nonnull align 8 dereferenceable(24) %4) #17
  call void @_ZN3gmx25ModularSimulatorAlgorithm17populateTaskQueueEv(ptr noundef nonnull align 8 dereferenceable(448) %3)
  ret void
}