; Function Attrs: mustprogress uwtable
define void @_ZN3gmx25ModularSimulatorAlgorithm15updateTaskQueueEv(ptr noundef nonnull align 8 dereferenceable(448) %0) local_unnamed_addr #3 align 2 personality ptr @__gxx_personality_v0 {
  %2 = load ptr, ptr %0, align 8
  %3 = getelementptr inbounds i8, ptr %0, i64 8
  %4 = load ptr, ptr %3, align 8
  %.not.i.i = icmp eq ptr %4, %2
  br i1 %.not.i.i, label %_ZNSt6vectorISt8functionIFvvEESaIS2_EE5clearEv.exit, label %.lr.ph.i.i.i.i.i

.lr.ph.i.i.i.i.i:                                 ; preds = %1, %_ZSt8_DestroyISt8functionIFvvEEEvPT_.exit.i.i.i.i.i
  %.05.i.i.i.i.i = phi ptr [ %12, %_ZSt8_DestroyISt8functionIFvvEEEvPT_.exit.i.i.i.i.i ], [ %2, %1 ]
  %5 = getelementptr inbounds i8, ptr %.05.i.i.i.i.i, i64 16
  %6 = load ptr, ptr %5, align 8
  %.not.i.i.i.i.i.i.i.i = icmp eq ptr %6, null
  br i1 %.not.i.i.i.i.i.i.i.i, label %_ZSt8_DestroyISt8functionIFvvEEEvPT_.exit.i.i.i.i.i, label %7

7:                                                ; preds = %.lr.ph.i.i.i.i.i
  %8 = invoke noundef zeroext i1 %6(ptr noundef nonnull align 8 dereferenceable(16) %.05.i.i.i.i.i, ptr noundef nonnull align 8 dereferenceable(16) %.05.i.i.i.i.i, i32 noundef 3)
          to label %_ZSt8_DestroyISt8functionIFvvEEEvPT_.exit.i.i.i.i.i unwind label %9

9:                                                ; preds = %7
  %10 = landingpad { ptr, i32 }
          catch ptr null
  %11 = extractvalue { ptr, i32 } %10, 0
  tail call void @__clang_call_terminate(ptr %11) #27
  unreachable

_ZSt8_DestroyISt8functionIFvvEEEvPT_.exit.i.i.i.i.i: ; preds = %7, %.lr.ph.i.i.i.i.i
  %12 = getelementptr inbounds i8, ptr %.05.i.i.i.i.i, i64 32
  %.not.i.i.i.i.i = icmp eq ptr %12, %4
  br i1 %.not.i.i.i.i.i, label %_ZSt8_DestroyIPSt8functionIFvvEES2_EvT_S4_RSaIT0_E.exit.i.i, label %.lr.ph.i.i.i.i.i, !llvm.loop !14

_ZSt8_DestroyIPSt8functionIFvvEES2_EvT_S4_RSaIT0_E.exit.i.i: ; preds = %_ZSt8_DestroyISt8functionIFvvEEEvPT_.exit.i.i.i.i.i
  store ptr %2, ptr %3, align 8
  br label %_ZNSt6vectorISt8functionIFvvEESaIS2_EE5clearEv.exit

_ZNSt6vectorISt8functionIFvvEESaIS2_EE5clearEv.exit: ; preds = %1, %_ZSt8_DestroyIPSt8functionIFvvEES2_EvT_S4_RSaIT0_E.exit.i.i
  tail call void @_ZN3gmx25ModularSimulatorAlgorithm17populateTaskQueueEv(ptr noundef nonnull align 8 dereferenceable(448) %0)
  ret void
}